; ModuleID = 'bench/php/original/serialize.ll'
source_filename = "bench/php/original/serialize.ll"
target datalayout = "e-m:e-p270:32:32-p271:32:32-p272:64:64-i64:64-i128:128-f80:128-n8:16:32:64-S128"
target triple = "x86_64-pc-linux-gnu"

; Function Attrs: mustprogress nofree norecurse nosync nounwind willreturn memory(argmem: readwrite) uwtable
define hidden noundef i32 @lexbor_serialize_length_cb(ptr nocapture noundef readnone %0, i64 noundef %1, ptr nocapture noundef %2) local_unnamed_addr #0 {
  %4 = load i64, ptr %2, align 8
  %5 = add i64 %4, %1
  store i64 %5, ptr %2, align 8
  ret i32 0
}

; Function Attrs: mustprogress nofree norecurse nosync nounwind willreturn memory(readwrite, inaccessiblemem: none) uwtable
define hidden noundef i32 @lexbor_serialize_copy_cb(ptr nocapture noundef readonly %0, i64 noundef %1, ptr nocapture noundef %2) local_unnamed_addr #1 {
  %4 = load ptr, ptr %2, align 8
  %5 = getelementptr inbounds i8, ptr %2, i64 8
  %6 = load i64, ptr %5, align 8
  %7 = getelementptr inbounds i8, ptr %4, i64 %6
  tail call void @llvm.memcpy.p0.p0.i64(ptr align 1 %7, ptr align 1 %0, i64 %1, i1 false)
  %8 = load i64, ptr %5, align 8
  %9 = add i64 %8, %1
  store i64 %9, ptr %5, align 8
  ret i32 0
}

; Function Attrs: mustprogress nocallback nofree nounwind willreturn memory(argmem: readwrite)
declare void @llvm.memcpy.p0.p0.i64(ptr noalias nocapture writeonly, ptr noalias nocapture readonly, i64, i1 immarg) #2


!llvm.module.flags = !{!0, !1, !2, !3}

!0 = !{i32 1, !"wchar_size", i32 4}
!1 = !{i32 8, !"PIC Level", i32 2}
!2 = !{i32 7, !"uwtable", i32 2}
!3 = !{i32 7, !"frame-pointer", i32 2}
